target datalayout = "e-m:e-p270:32:32-p271:32:32-p272:64:64-i64:64-i128:128-f80:128-n8:16:32:64-S128"
target triple = "x86_64-pc-linux-gnu"

%struct.ossl_decoder_ctx_st = type { ptr, ptr, i32, ptr, ptr, ptr, ptr, %struct.ossl_passphrase_data_st, i32 }
%struct.ossl_passphrase_data_st = type { i32, %union.anon, i8, ptr, i64 }
%union.anon = type { %struct.anon }
%struct.anon = type { ptr, i64 }

@.str = private unnamed_addr constant [47 x i8] c"../openssl/crypto/encode_decode/decoder_meth.c\00", align 1

; Function Attrs: inlinehint nounwind uwtable
define internal void @sk_OSSL_DECODER_INSTANCE_pop_free(ptr noundef %0, ptr noundef %1) #2 {
  %3 = alloca ptr, align 8
  %4 = alloca ptr, align 8
  store ptr %0, ptr %3, align 8, !tbaa !80
  store ptr %1, ptr %4, align 8, !tbaa !10
  %5 = load ptr, ptr %3, align 8, !tbaa !80
  %6 = load ptr, ptr %4, align 8, !tbaa !10
  call void @OPENSSL_sk_pop_free(ptr noundef %5, ptr noundef %6)
  ret void
}

; Function Attrs: nounwind uwtable
define void @OSSL_DECODER_CTX_free(ptr noundef %0) #0 {
  %2 = alloca ptr, align 8
  store ptr %0, ptr %2, align 8, !tbaa !69
  %3 = load ptr, ptr %2, align 8, !tbaa !69
  %4 = icmp ne ptr %3, null
  br i1 %4, label %5, label %24

5:                                                ; preds = %1
  %6 = load ptr, ptr %2, align 8, !tbaa !69
  %7 = getelementptr inbounds nuw %struct.ossl_decoder_ctx_st, ptr %6, i32 0, i32 5
  %8 = load ptr, ptr %7, align 8, !tbaa !81
  %9 = icmp ne ptr %8, null
  br i1 %9, label %10, label %17

10:                                               ; preds = %5
  %11 = load ptr, ptr %2, align 8, !tbaa !69
  %12 = getelementptr inbounds nuw %struct.ossl_decoder_ctx_st, ptr %11, i32 0, i32 5
  %13 = load ptr, ptr %12, align 8, !tbaa !81
  %14 = load ptr, ptr %2, align 8, !tbaa !69
  %15 = getelementptr inbounds nuw %struct.ossl_decoder_ctx_st, ptr %14, i32 0, i32 6
  %16 = load ptr, ptr %15, align 8, !tbaa !82
  call void %13(ptr noundef %16)
  br label %17

17:                                               ; preds = %10, %5
  %18 = load ptr, ptr %2, align 8, !tbaa !69
  %19 = getelementptr inbounds nuw %struct.ossl_decoder_ctx_st, ptr %18, i32 0, i32 3
  %20 = load ptr, ptr %19, align 8, !tbaa !71
  call void @sk_OSSL_DECODER_INSTANCE_pop_free(ptr noundef %20, ptr noundef @ossl_decoder_instance_free)
  %21 = load ptr, ptr %2, align 8, !tbaa !69
  %22 = getelementptr inbounds nuw %struct.ossl_decoder_ctx_st, ptr %21, i32 0, i32 7
  call void @ossl_pw_clear_passphrase_data(ptr noundef %22)
  %23 = load ptr, ptr %2, align 8, !tbaa !69
  call void @CRYPTO_free(ptr noundef %23, ptr noundef @.str, i32 noundef 680)
  br label %24

24:                                               ; preds = %17, %1
  ret void
}