; Function Attrs: nounwind uwtable
define void @OSSL_DECODER_CTX_free(ptr noundef %0) local_unnamed_addr #2 {
  %.not = icmp eq ptr %0, null
  br i1 %.not, label %12, label %2

2:                                                ; preds = %1
  %3 = getelementptr inbounds nuw i8, ptr %0, i64 40
  %4 = load ptr, ptr %3, align 8, !tbaa !61
  %.not8 = icmp eq ptr %4, null
  br i1 %.not8, label %8, label %5

5:                                                ; preds = %2
  %6 = getelementptr inbounds nuw i8, ptr %0, i64 48
  %7 = load ptr, ptr %6, align 8, !tbaa !62
  tail call void %4(ptr noundef %7) #8
  br label %8

8:                                                ; preds = %5, %2
  %9 = getelementptr inbounds nuw i8, ptr %0, i64 24
  %10 = load ptr, ptr %9, align 8, !tbaa !55
  tail call void @OPENSSL_sk_pop_free(ptr noundef %10, ptr noundef nonnull @ossl_decoder_instance_free) #8
  %11 = getelementptr inbounds nuw i8, ptr %0, i64 56
  tail call void @ossl_pw_clear_passphrase_data(ptr noundef nonnull %11) #8
  tail call void @CRYPTO_free(ptr noundef nonnull %0, ptr noundef nonnull @.str, i32 noundef 680) #8
  br label %12

12:                                               ; preds = %8, %1
  ret void
}